#include <math.h>
#include <stdio.h>
#include <stdlib.h>
#include <string.h>

int main()
{
	int k[100][100];
	int m=0,x=0,i,j,row=0,col=0;
	scanf("%d %d",&row,&col);
	for(i=0;i<row;i++){
		for(j=0;j<col;j++){
			scanf("%d",&k[i][j]);
		}
	}
	for(m=0;m<row+col-1;m++){
		for(j=m;;j--){
			if(j>=col||m-j>=row){
				break;
			}
			if(j<0||m-j<0){
				break;
			}
			printf("%d\n",k[m-j][j]);
		}
	}
    for(m=col;m<row+col-1;m++){
		for(j=col-1;j>=0;j--){
			if(m-j>=row){
				break;
			}
			printf("%d\n",k[m-j][j]);
		}
	}
	return 0;
}
